; Function Attrs: mustprogress nounwind uwtable
define hidden void @_ZN12MutableSpace5clearEb(ptr noundef nonnull align 8 dereferenceable(56) %0, i1 zeroext %1) unnamed_addr #1 align 2 {
  %3 = getelementptr inbounds i8, ptr %0, i64 32
  %4 = load ptr, ptr %3, align 8
  %5 = load ptr, ptr %0, align 8
  %6 = getelementptr inbounds i8, ptr %5, i64 16
  %7 = load ptr, ptr %6, align 8
  tail call void %7(ptr noundef nonnull align 8 dereferenceable(56) %0, ptr noundef %4) #11
  ret void
}